target datalayout = "e-m:e-p270:32:32-p271:32:32-p272:64:64-i64:64-i128:128-f80:128-n8:16:32:64-S128"
target triple = "x86_64-pc-linux-gnu"

%struct.lzma_filter = type { i64, ptr }

; Function Attrs: nounwind uwtable
define internal void @free_filter_chain(ptr noundef %0) #0 {
  %2 = alloca ptr, align 8
  %3 = alloca i32, align 4
  store ptr %0, ptr %2, align 8, !tbaa !8
  call void @llvm.lifetime.start.p0(i64 4, ptr %3) #9
  store i32 0, ptr %3, align 4, !tbaa !12
  br label %4

4:                                                ; preds = %20, %1
  %5 = load ptr, ptr %2, align 8, !tbaa !8
  %6 = load i32, ptr %3, align 4, !tbaa !12
  %7 = sext i32 %6 to i64
  %8 = getelementptr %struct.lzma_filter, ptr %5, i64 %7
  %9 = getelementptr inbounds nuw %struct.lzma_filter, ptr %8, i32 0, i32 0
  %10 = load i64, ptr %9, align 8, !tbaa !22
  %11 = icmp ne i64 %10, -1
  br i1 %11, label %13, label %12

12:                                               ; preds = %4
  call void @llvm.lifetime.end.p0(i64 4, ptr %3) #9
  br label %23

13:                                               ; preds = %4
  %14 = load ptr, ptr %2, align 8, !tbaa !8
  %15 = load i32, ptr %3, align 4, !tbaa !12
  %16 = sext i32 %15 to i64
  %17 = getelementptr %struct.lzma_filter, ptr %14, i64 %16
  %18 = getelementptr inbounds nuw %struct.lzma_filter, ptr %17, i32 0, i32 1
  %19 = load ptr, ptr %18, align 8, !tbaa !25
  call void @PyMem_Free(ptr noundef %19)
  br label %20

20:                                               ; preds = %13
  %21 = load i32, ptr %3, align 4, !tbaa !12
  %22 = add i32 %21, 1
  store i32 %22, ptr %3, align 4, !tbaa !12
  br label %4, !llvm.loop !85

23:                                               ; preds = %12
  ret void
}

; Function Attrs: nounwind uwtable
define internal i32 @Decompressor_init_raw(ptr noundef %0, ptr noundef %1, ptr noundef %2) #0 {
  %4 = alloca i32, align 4
  %5 = alloca ptr, align 8
  %6 = alloca ptr, align 8
  %7 = alloca ptr, align 8
  %8 = alloca [5 x %struct.lzma_filter], align 16
  %9 = alloca i32, align 4
  %10 = alloca i32, align 4
  store ptr %0, ptr %5, align 8, !tbaa !8
  store ptr %1, ptr %6, align 8, !tbaa !8
  store ptr %2, ptr %7, align 8, !tbaa !3
  call void @llvm.lifetime.start.p0(i64 80, ptr %8) #9
  call void @llvm.lifetime.start.p0(i64 4, ptr %9) #9
  %11 = load ptr, ptr %5, align 8, !tbaa !8
  %12 = getelementptr inbounds [5 x %struct.lzma_filter], ptr %8, i64 0, i64 0
  %13 = load ptr, ptr %7, align 8, !tbaa !3
  %14 = call i32 @parse_filter_chain_spec(ptr noundef %11, ptr noundef %12, ptr noundef %13)
  %15 = icmp eq i32 %14, -1
  br i1 %15, label %16, label %17

16:                                               ; preds = %3
  store i32 -1, ptr %4, align 4
  store i32 1, ptr %10, align 4
  br label %28

17:                                               ; preds = %3
  %18 = load ptr, ptr %6, align 8, !tbaa !8
  %19 = getelementptr inbounds [5 x %struct.lzma_filter], ptr %8, i64 0, i64 0
  %20 = call i32 @lzma_raw_decoder(ptr noundef %18, ptr noundef %19) #9
  store i32 %20, ptr %9, align 4, !tbaa !12
  %21 = getelementptr inbounds [5 x %struct.lzma_filter], ptr %8, i64 0, i64 0
  call void @free_filter_chain(ptr noundef %21)
  %22 = load ptr, ptr %5, align 8, !tbaa !8
  %23 = load i32, ptr %9, align 4, !tbaa !12
  %24 = call i32 @catch_lzma_error(ptr noundef %22, i32 noundef %23)
  %25 = icmp ne i32 %24, 0
  br i1 %25, label %26, label %27

26:                                               ; preds = %17
  store i32 -1, ptr %4, align 4
  store i32 1, ptr %10, align 4
  br label %28

27:                                               ; preds = %17
  store i32 0, ptr %4, align 4
  store i32 1, ptr %10, align 4
  br label %28

28:                                               ; preds = %27, %26, %16
  call void @llvm.lifetime.end.p0(i64 4, ptr %9) #9
  call void @llvm.lifetime.end.p0(i64 80, ptr %8) #9
  %29 = load i32, ptr %4, align 4
  ret i32 %29
}