; Function Attrs: nounwind uwtable
define internal fastcc range(i32 -1, 1) i32 @Decompressor_init_raw(ptr noundef readonly captures(none) %0, ptr noundef nonnull %1, ptr noundef %2) unnamed_addr #0 {
  %4 = alloca [5 x %struct.lzma_filter], align 16
  call void @llvm.lifetime.start.p0(i64 80, ptr nonnull %4) #10
  %5 = call fastcc i32 @parse_filter_chain_spec(ptr noundef %0, ptr noundef %4, ptr noundef %2)
  %6 = icmp eq i32 %5, -1
  br i1 %6, label %18, label %7

7:                                                ; preds = %3
  %8 = call i32 @lzma_raw_decoder(ptr noundef nonnull %1, ptr noundef nonnull %4) #10
  %9 = load i64, ptr %4, align 16, !tbaa !16
  %.not4.i = icmp eq i64 %9, -1
  br i1 %.not4.i, label %free_filter_chain.exit, label %.lr.ph.i

.lr.ph.i:                                         ; preds = %7, %.lr.ph.i
  %10 = phi ptr [ %15, %.lr.ph.i ], [ %4, %7 ]
  %.05.i = phi i32 [ %13, %.lr.ph.i ], [ 0, %7 ]
  %11 = getelementptr inbounds nuw i8, ptr %10, i64 8
  %12 = load ptr, ptr %11, align 8, !tbaa !21
  call void @PyMem_Free(ptr noundef %12) #10
  %13 = add i32 %.05.i, 1
  %14 = sext i32 %13 to i64
  %15 = getelementptr %struct.lzma_filter, ptr %4, i64 %14
  %16 = load i64, ptr %15, align 16, !tbaa !16
  %.not.i = icmp eq i64 %16, -1
  br i1 %.not.i, label %free_filter_chain.exit, label %.lr.ph.i, !llvm.loop !73

free_filter_chain.exit:                           ; preds = %.lr.ph.i, %7
  %17 = call fastcc i32 @catch_lzma_error(ptr noundef %0, i32 noundef %8)
  %sext = sub nsw i32 0, %17
  br label %18

18:                                               ; preds = %free_filter_chain.exit, %3
  %.0 = phi i32 [ -1, %3 ], [ %sext, %free_filter_chain.exit ]
  call void @llvm.lifetime.end.p0(i64 80, ptr nonnull %4) #10
  ret i32 %.0
}